target datalayout = "e-m:e-p270:32:32-p271:32:32-p272:64:64-i64:64-i128:128-f80:128-n8:16:32:64-S128"
target triple = "x86_64-pc-linux-gnu"

%struct.X509_algor_st = type { ptr, ptr }
%struct.pkcs7_signer_info_st = type { ptr, ptr, ptr, ptr, ptr, ptr, ptr, ptr, ptr }

@.str = private unnamed_addr constant [35 x i8] c"../openssl/crypto/pkcs7/pk7_doit.c\00", align 1
@__func__.PKCS7_SIGNER_INFO_sign = private unnamed_addr constant [23 x i8] c"PKCS7_SIGNER_INFO_sign\00", align 1

; Function Attrs: nounwind uwtable
define i32 @PKCS7_SIGNER_INFO_sign(ptr noundef %0) #0 {
  %2 = alloca i32, align 4
  %3 = alloca ptr, align 8
  %4 = alloca ptr, align 8
  %5 = alloca ptr, align 8
  %6 = alloca ptr, align 8
  %7 = alloca i32, align 4
  %8 = alloca i64, align 8
  %9 = alloca ptr, align 8
  %10 = alloca ptr, align 8
  %11 = alloca i32, align 4
  store ptr %0, ptr %3, align 8, !tbaa !107
  call void @llvm.lifetime.start.p0(i64 8, ptr %4) #5
  call void @llvm.lifetime.start.p0(i64 8, ptr %5) #5
  store ptr null, ptr %5, align 8, !tbaa !77
  call void @llvm.lifetime.start.p0(i64 8, ptr %6) #5
  store ptr null, ptr %6, align 8, !tbaa !37
  call void @llvm.lifetime.start.p0(i64 4, ptr %7) #5
  call void @llvm.lifetime.start.p0(i64 8, ptr %8) #5
  call void @llvm.lifetime.start.p0(i64 8, ptr %9) #5
  store ptr null, ptr %9, align 8, !tbaa !75
  call void @llvm.lifetime.start.p0(i64 8, ptr %10) #5
  %12 = load ptr, ptr %3, align 8, !tbaa !107
  %13 = getelementptr inbounds nuw %struct.pkcs7_signer_info_st, ptr %12, i32 0, i32 8
  %14 = load ptr, ptr %13, align 8, !tbaa !120
  store ptr %14, ptr %10, align 8, !tbaa !34
  %15 = load ptr, ptr %3, align 8, !tbaa !107
  %16 = getelementptr inbounds nuw %struct.pkcs7_signer_info_st, ptr %15, i32 0, i32 2
  %17 = load ptr, ptr %16, align 8, !tbaa !112
  %18 = getelementptr inbounds nuw %struct.X509_algor_st, ptr %17, i32 0, i32 0
  %19 = load ptr, ptr %18, align 8, !tbaa !61
  %20 = call i32 @OBJ_obj2nid(ptr noundef %19)
  %21 = call ptr @OBJ_nid2sn(i32 noundef %20)
  %22 = call ptr @EVP_get_digestbyname(ptr noundef %21)
  store ptr %22, ptr %9, align 8, !tbaa !75
  %23 = load ptr, ptr %9, align 8, !tbaa !75
  %24 = icmp eq ptr %23, null
  br i1 %24, label %25, label %26

25:                                               ; preds = %1
  store i32 0, ptr %2, align 4
  store i32 1, ptr %11, align 4
  br label %94

26:                                               ; preds = %1
  %27 = call ptr @EVP_MD_CTX_new()
  store ptr %27, ptr %4, align 8, !tbaa !102
  %28 = load ptr, ptr %4, align 8, !tbaa !102
  %29 = icmp eq ptr %28, null
  br i1 %29, label %30, label %31

30:                                               ; preds = %26
  call void @ERR_new()
  call void @ERR_set_debug(ptr noundef @.str, i32 noundef 962, ptr noundef @__func__.PKCS7_SIGNER_INFO_sign)
  call void (i32, i32, ptr, ...) @ERR_set_error(i32 noundef 33, i32 noundef 524294, ptr noundef null)
  br label %91

31:                                               ; preds = %26
  %32 = load ptr, ptr %4, align 8, !tbaa !102
  %33 = load ptr, ptr %9, align 8, !tbaa !75
  %34 = call ptr @EVP_MD_get0_name(ptr noundef %33)
  %35 = load ptr, ptr %10, align 8, !tbaa !34
  %36 = call ptr @ossl_pkcs7_ctx_get0_libctx(ptr noundef %35)
  %37 = load ptr, ptr %10, align 8, !tbaa !34
  %38 = call ptr @ossl_pkcs7_ctx_get0_propq(ptr noundef %37)
  %39 = load ptr, ptr %3, align 8, !tbaa !107
  %40 = getelementptr inbounds nuw %struct.pkcs7_signer_info_st, ptr %39, i32 0, i32 7
  %41 = load ptr, ptr %40, align 8, !tbaa !109
  %42 = call i32 @EVP_DigestSignInit_ex(ptr noundef %32, ptr noundef %5, ptr noundef %34, ptr noundef %36, ptr noundef %38, ptr noundef %41, ptr noundef null)
  %43 = icmp sle i32 %42, 0
  br i1 %43, label %44, label %45

44:                                               ; preds = %31
  br label %91

45:                                               ; preds = %31
  %46 = load ptr, ptr %3, align 8, !tbaa !107
  %47 = getelementptr inbounds nuw %struct.pkcs7_signer_info_st, ptr %46, i32 0, i32 3
  %48 = load ptr, ptr %47, align 8, !tbaa !113
  %49 = call ptr @PKCS7_ATTR_SIGN_it()
  %50 = call i32 @ASN1_item_i2d(ptr noundef %48, ptr noundef %6, ptr noundef %49)
  store i32 %50, ptr %7, align 4, !tbaa !8
  %51 = load i32, ptr %7, align 4, !tbaa !8
  %52 = icmp slt i32 %51, 0
  br i1 %52, label %56, label %53

53:                                               ; preds = %45
  %54 = load ptr, ptr %6, align 8, !tbaa !37
  %55 = icmp eq ptr %54, null
  br i1 %55, label %56, label %57

56:                                               ; preds = %53, %45
  br label %91

57:                                               ; preds = %53
  %58 = load ptr, ptr %4, align 8, !tbaa !102
  %59 = load ptr, ptr %6, align 8, !tbaa !37
  %60 = load i32, ptr %7, align 4, !tbaa !8
  %61 = sext i32 %60 to i64
  %62 = call i32 @EVP_DigestSignUpdate(ptr noundef %58, ptr noundef %59, i64 noundef %61)
  %63 = icmp sle i32 %62, 0
  br i1 %63, label %64, label %65

64:                                               ; preds = %57
  br label %91

65:                                               ; preds = %57
  %66 = load ptr, ptr %6, align 8, !tbaa !37
  call void @CRYPTO_free(ptr noundef %66, ptr noundef @.str, i32 noundef 978)
  store ptr null, ptr %6, align 8, !tbaa !37
  %67 = load ptr, ptr %4, align 8, !tbaa !102
  %68 = call i32 @EVP_DigestSignFinal(ptr noundef %67, ptr noundef null, ptr noundef %8)
  %69 = icmp sle i32 %68, 0
  br i1 %69, label %70, label %71

70:                                               ; preds = %65
  br label %91

71:                                               ; preds = %65
  %72 = load i64, ptr %8, align 8, !tbaa !72
  %73 = call noalias ptr @CRYPTO_malloc(i64 noundef %72, ptr noundef @.str, i32 noundef 982)
  store ptr %73, ptr %6, align 8, !tbaa !37
  %74 = load ptr, ptr %6, align 8, !tbaa !37
  %75 = icmp eq ptr %74, null
  br i1 %75, label %76, label %77

76:                                               ; preds = %71
  br label %91

77:                                               ; preds = %71
  %78 = load ptr, ptr %4, align 8, !tbaa !102
  %79 = load ptr, ptr %6, align 8, !tbaa !37
  %80 = call i32 @EVP_DigestSignFinal(ptr noundef %78, ptr noundef %79, ptr noundef %8)
  %81 = icmp sle i32 %80, 0
  br i1 %81, label %82, label %83

82:                                               ; preds = %77
  br label %91

83:                                               ; preds = %77
  %84 = load ptr, ptr %4, align 8, !tbaa !102
  call void @EVP_MD_CTX_free(ptr noundef %84)
  %85 = load ptr, ptr %3, align 8, !tbaa !107
  %86 = getelementptr inbounds nuw %struct.pkcs7_signer_info_st, ptr %85, i32 0, i32 5
  %87 = load ptr, ptr %86, align 8, !tbaa !115
  %88 = load ptr, ptr %6, align 8, !tbaa !37
  %89 = load i64, ptr %8, align 8, !tbaa !72
  %90 = trunc i64 %89 to i32
  call void @ASN1_STRING_set0(ptr noundef %87, ptr noundef %88, i32 noundef %90)
  store i32 1, ptr %2, align 4
  store i32 1, ptr %11, align 4
  br label %94

91:                                               ; preds = %82, %76, %70, %64, %56, %44, %30
  %92 = load ptr, ptr %6, align 8, !tbaa !37
  call void @CRYPTO_free(ptr noundef %92, ptr noundef @.str, i32 noundef 995)
  %93 = load ptr, ptr %4, align 8, !tbaa !102
  call void @EVP_MD_CTX_free(ptr noundef %93)
  store i32 0, ptr %2, align 4
  store i32 1, ptr %11, align 4
  br label %94

94:                                               ; preds = %91, %83, %25
  call void @llvm.lifetime.end.p0(i64 8, ptr %10) #5
  call void @llvm.lifetime.end.p0(i64 8, ptr %9) #5
  call void @llvm.lifetime.end.p0(i64 8, ptr %8) #5
  call void @llvm.lifetime.end.p0(i64 4, ptr %7) #5
  call void @llvm.lifetime.end.p0(i64 8, ptr %6) #5
  call void @llvm.lifetime.end.p0(i64 8, ptr %5) #5
  call void @llvm.lifetime.end.p0(i64 8, ptr %4) #5
  %95 = load i32, ptr %2, align 4
  ret i32 %95
}