; Function Attrs: nounwind uwtable
define range(i32 0, 2) i32 @PKCS7_SIGNER_INFO_sign(ptr noundef readonly captures(none) %0) local_unnamed_addr #0 {
  %2 = alloca ptr, align 8
  %3 = alloca ptr, align 8
  %4 = alloca i64, align 8
  call void @llvm.lifetime.start.p0(i64 8, ptr nonnull %2) #4
  store ptr null, ptr %2, align 8, !tbaa !94
  call void @llvm.lifetime.start.p0(i64 8, ptr nonnull %3) #4
  store ptr null, ptr %3, align 8, !tbaa !66
  call void @llvm.lifetime.start.p0(i64 8, ptr nonnull %4) #4
  %5 = getelementptr inbounds nuw i8, ptr %0, i64 64
  %6 = load ptr, ptr %5, align 8, !tbaa !96
  %7 = getelementptr inbounds nuw i8, ptr %0, i64 16
  %8 = load ptr, ptr %7, align 8, !tbaa !87
  %9 = load ptr, ptr %8, align 8, !tbaa !48
  %10 = tail call i32 @OBJ_obj2nid(ptr noundef %9) #4
  %11 = tail call ptr @OBJ_nid2sn(i32 noundef %10) #4
  %12 = tail call ptr @EVP_get_digestbyname(ptr noundef %11) #4
  %13 = icmp eq ptr %12, null
  br i1 %13, label %57, label %14

14:                                               ; preds = %1
  %15 = tail call ptr @EVP_MD_CTX_new() #4
  %16 = icmp eq ptr %15, null
  br i1 %16, label %17, label %18

17:                                               ; preds = %14
  tail call void @ERR_new() #4
  tail call void @ERR_set_debug(ptr noundef nonnull @.str, i32 noundef 962, ptr noundef nonnull @__func__.PKCS7_SIGNER_INFO_sign) #4
  tail call void (i32, i32, ptr, ...) @ERR_set_error(i32 noundef 33, i32 noundef 524294, ptr noundef null) #4
  br label %55

18:                                               ; preds = %14
  %19 = tail call ptr @EVP_MD_get0_name(ptr noundef nonnull %12) #4
  %20 = tail call ptr @ossl_pkcs7_ctx_get0_libctx(ptr noundef %6) #4
  %21 = tail call ptr @ossl_pkcs7_ctx_get0_propq(ptr noundef %6) #4
  %22 = getelementptr inbounds nuw i8, ptr %0, i64 56
  %23 = load ptr, ptr %22, align 8, !tbaa !83
  %24 = call i32 @EVP_DigestSignInit_ex(ptr noundef nonnull %15, ptr noundef nonnull %2, ptr noundef %19, ptr noundef %20, ptr noundef %21, ptr noundef %23, ptr noundef null) #4
  %25 = icmp slt i32 %24, 1
  br i1 %25, label %55, label %26

26:                                               ; preds = %18
  %27 = getelementptr inbounds nuw i8, ptr %0, i64 24
  %28 = load ptr, ptr %27, align 8, !tbaa !90
  %29 = call ptr @PKCS7_ATTR_SIGN_it() #4
  %30 = call i32 @ASN1_item_i2d(ptr noundef %28, ptr noundef nonnull %3, ptr noundef %29) #4
  %31 = icmp slt i32 %30, 0
  %32 = load ptr, ptr %3, align 8
  %33 = icmp eq ptr %32, null
  %or.cond = select i1 %31, i1 true, i1 %33
  br i1 %or.cond, label %55, label %34

34:                                               ; preds = %26
  %35 = zext nneg i32 %30 to i64
  %36 = call i32 @EVP_DigestSignUpdate(ptr noundef nonnull %15, ptr noundef nonnull %32, i64 noundef %35) #4
  %37 = icmp slt i32 %36, 1
  br i1 %37, label %55, label %38

38:                                               ; preds = %34
  %39 = load ptr, ptr %3, align 8, !tbaa !66
  call void @CRYPTO_free(ptr noundef %39, ptr noundef nonnull @.str, i32 noundef 978) #4
  store ptr null, ptr %3, align 8, !tbaa !66
  %40 = call i32 @EVP_DigestSignFinal(ptr noundef nonnull %15, ptr noundef null, ptr noundef nonnull %4) #4
  %41 = icmp slt i32 %40, 1
  br i1 %41, label %55, label %42

42:                                               ; preds = %38
  %43 = load i64, ptr %4, align 8, !tbaa !59
  %44 = call noalias ptr @CRYPTO_malloc(i64 noundef %43, ptr noundef nonnull @.str, i32 noundef 982) #4
  store ptr %44, ptr %3, align 8, !tbaa !66
  %45 = icmp eq ptr %44, null
  br i1 %45, label %55, label %46

46:                                               ; preds = %42
  %47 = call i32 @EVP_DigestSignFinal(ptr noundef nonnull %15, ptr noundef nonnull %44, ptr noundef nonnull %4) #4
  %48 = icmp slt i32 %47, 1
  br i1 %48, label %55, label %49

49:                                               ; preds = %46
  call void @EVP_MD_CTX_free(ptr noundef nonnull %15) #4
  %50 = getelementptr inbounds nuw i8, ptr %0, i64 40
  %51 = load ptr, ptr %50, align 8, !tbaa !91
  %52 = load ptr, ptr %3, align 8, !tbaa !66
  %53 = load i64, ptr %4, align 8, !tbaa !59
  %54 = trunc i64 %53 to i32
  call void @ASN1_STRING_set0(ptr noundef %51, ptr noundef %52, i32 noundef %54) #4
  br label %57

55:                                               ; preds = %46, %42, %38, %34, %26, %18, %17
  %56 = load ptr, ptr %3, align 8, !tbaa !66
  call void @CRYPTO_free(ptr noundef %56, ptr noundef nonnull @.str, i32 noundef 995) #4
  call void @EVP_MD_CTX_free(ptr noundef %15) #4
  br label %57

57:                                               ; preds = %1, %55, %49
  %.0 = phi i32 [ 0, %55 ], [ 1, %49 ], [ 0, %1 ]
  call void @llvm.lifetime.end.p0(i64 8, ptr nonnull %4) #4
  call void @llvm.lifetime.end.p0(i64 8, ptr nonnull %3) #4
  call void @llvm.lifetime.end.p0(i64 8, ptr nonnull %2) #4
  ret i32 %.0
}